; Function Attrs: mustprogress nofree norecurse nosync nounwind willreturn memory(argmem: readwrite) uwtable
define internal noundef zeroext i1 @"_ZNSt17_Function_handlerIFP4exprP10quantifierjEZN1q6solver9skolemizeES3_E3$_0E10_M_managerERSt9_Any_dataRKS9_St18_Manager_operation"(ptr nocapture noundef nonnull writeonly align 8 dereferenceable(16) %__dest, ptr noundef nonnull align 8 dereferenceable(16) %__source, i32 noundef %__op) #15 align 2 personality ptr @__gxx_personality_v0 {
entry:
  switch i32 %__op, label %sw.epilog [
    i32 0, label %sw.bb
    i32 1, label %sw.bb1
    i32 2, label %sw.bb4.i
  ]

sw.bb:                                            ; preds = %entry
  store ptr @"_ZTIZN1q6solver9skolemizeEP10quantifierE3$_0", ptr %__dest, align 8
  br label %sw.epilog

sw.bb1:                                           ; preds = %entry
  store ptr %__source, ptr %__dest, align 8
  br label %sw.epilog

sw.bb4.i:                                         ; preds = %entry
  %call5.val.i = load i64, ptr %__source, align 8
  store i64 %call5.val.i, ptr %__dest, align 8
  br label %sw.epilog

sw.epilog:                                        ; preds = %entry, %sw.bb4.i, %sw.bb1, %sw.bb
  ret i1 false
}